target datalayout = "e-m:e-p270:32:32-p271:32:32-p272:64:64-i64:64-i128:128-f80:128-n8:16:32:64-S128"
target triple = "x86_64-pc-linux-gnu"

%struct.LoadS = type { ptr, i64 }

; Function Attrs: nounwind uwtable
define dso_local i32 @luaL_loadbuffer(ptr noundef %0, ptr noundef %1, i64 noundef %2, ptr noundef %3) #0 {
  %5 = alloca ptr, align 8
  %6 = alloca ptr, align 8
  %7 = alloca i64, align 8
  %8 = alloca ptr, align 8
  %9 = alloca %struct.LoadS, align 8
  store ptr %0, ptr %5, align 8, !tbaa !4
  store ptr %1, ptr %6, align 8, !tbaa !11
  store i64 %2, ptr %7, align 8, !tbaa !23
  store ptr %3, ptr %8, align 8, !tbaa !11
  call void @llvm.lifetime.start.p0(i64 16, ptr %9) #9
  %10 = load ptr, ptr %6, align 8, !tbaa !11
  %11 = getelementptr inbounds nuw %struct.LoadS, ptr %9, i32 0, i32 0
  store ptr %10, ptr %11, align 8, !tbaa !56
  %12 = load i64, ptr %7, align 8, !tbaa !23
  %13 = getelementptr inbounds nuw %struct.LoadS, ptr %9, i32 0, i32 1
  store i64 %12, ptr %13, align 8, !tbaa !58
  %14 = load ptr, ptr %5, align 8, !tbaa !4
  %15 = load ptr, ptr %8, align 8, !tbaa !11
  %16 = call i32 @lua_load(ptr noundef %14, ptr noundef @getS, ptr noundef %9, ptr noundef %15)
  call void @llvm.lifetime.end.p0(i64 16, ptr %9) #9
  ret i32 %16
}