; Function Attrs: nounwind uwtable
define dso_local i32 @luaL_loadbuffer(ptr noundef %0, ptr noundef %1, i64 noundef %2, ptr noundef %3) local_unnamed_addr #0 {
  %5 = alloca %struct.LoadS, align 8
  call void @llvm.lifetime.start.p0(i64 16, ptr nonnull %5) #17
  store ptr %1, ptr %5, align 8, !tbaa !40
  %6 = getelementptr inbounds nuw i8, ptr %5, i64 8
  store i64 %2, ptr %6, align 8, !tbaa !42
  %7 = call i32 @lua_load(ptr noundef %0, ptr noundef nonnull @getS, ptr noundef nonnull %5, ptr noundef %3) #17
  call void @llvm.lifetime.end.p0(i64 16, ptr nonnull %5) #17
  ret i32 %7
}